target datalayout = "e-m:e-p270:32:32-p271:32:32-p272:64:64-i64:64-i128:128-f80:128-n8:16:32:64-S128"
target triple = "x86_64-unknown-linux-gnu"

%"class.net::CryptoHandshakeMessage" = type { i32, %"class.std::map", i64, %"class.std::unique_ptr" }
%"class.std::map" = type { %"class.std::_Rb_tree" }
%"class.std::_Rb_tree" = type { %"struct.std::_Rb_tree<unsigned int, std::pair<const unsigned int, std::__cxx11::basic_string<char>>, std::_Select1st<std::pair<const unsigned int, std::__cxx11::basic_string<char>>>, std::less<unsigned int>>::_Rb_tree_impl" }
%"struct.std::_Rb_tree<unsigned int, std::pair<const unsigned int, std::__cxx11::basic_string<char>>, std::_Select1st<std::pair<const unsigned int, std::__cxx11::basic_string<char>>>, std::less<unsigned int>>::_Rb_tree_impl" = type { %"struct.std::_Rb_tree_key_compare", %"struct.std::_Rb_tree_header" }
%"struct.std::_Rb_tree_key_compare" = type { %"struct.std::less" }
%"struct.std::less" = type { i8 }
%"struct.std::_Rb_tree_header" = type { %"struct.std::_Rb_tree_node_base", i64 }
%"struct.std::_Rb_tree_node_base" = type { i32, ptr, ptr, ptr }
%"class.std::unique_ptr" = type { %"struct.std::__uniq_ptr_data" }
%"struct.std::__uniq_ptr_data" = type { %"class.std::__uniq_ptr_impl" }
%"class.std::__uniq_ptr_impl" = type { %"class.std::tuple" }
%"class.std::tuple" = type { %"struct.std::_Tuple_impl" }
%"struct.std::_Tuple_impl" = type { %"struct.std::_Head_base.9" }
%"struct.std::_Head_base.9" = type { ptr }
%"class.std::__cxx11::basic_string" = type { %"struct.std::__cxx11::basic_string<char>::_Alloc_hider", i64, %union.anon }
%"struct.std::__cxx11::basic_string<char>::_Alloc_hider" = type { ptr }
%union.anon = type { i64, [8 x i8] }
%"class.std::vector.45" = type { %"struct.std::_Vector_base.46" }
%"struct.std::_Vector_base.46" = type { %"struct.std::_Vector_base<std::__cxx11::basic_string<char>, std::allocator<std::__cxx11::basic_string<char>>>::_Vector_impl" }
%"struct.std::_Vector_base<std::__cxx11::basic_string<char>, std::allocator<std::__cxx11::basic_string<char>>>::_Vector_impl" = type { %"struct.std::_Vector_base<std::__cxx11::basic_string<char>, std::allocator<std::__cxx11::basic_string<char>>>::_Vector_impl_data" }
%"struct.std::_Vector_base<std::__cxx11::basic_string<char>, std::allocator<std::__cxx11::basic_string<char>>>::_Vector_impl_data" = type { ptr, ptr, ptr }
%"class.std::unique_ptr.203" = type { %"struct.std::__uniq_ptr_data.204" }
%"struct.std::__uniq_ptr_data.204" = type { %"class.std::__uniq_ptr_impl.205" }
%"class.std::__uniq_ptr_impl.205" = type { %"class.std::tuple.206" }
%"class.std::tuple.206" = type { %"struct.std::_Tuple_impl.207" }
%"struct.std::_Tuple_impl.207" = type { %"struct.std::_Head_base.210" }
%"struct.std::_Head_base.210" = type { ptr }
%"struct.net::CrypterPair" = type { %"class.std::unique_ptr.187", %"class.std::unique_ptr.195" }
%"class.std::unique_ptr.187" = type { %"struct.std::__uniq_ptr_data.188" }
%"struct.std::__uniq_ptr_data.188" = type { %"class.std::__uniq_ptr_impl.189" }
%"class.std::__uniq_ptr_impl.189" = type { %"class.std::tuple.190" }
%"class.std::tuple.190" = type { %"struct.std::_Tuple_impl.191" }
%"struct.std::_Tuple_impl.191" = type { %"struct.std::_Head_base.194" }
%"struct.std::_Head_base.194" = type { ptr }
%"class.std::unique_ptr.195" = type { %"struct.std::__uniq_ptr_data.196" }
%"struct.std::__uniq_ptr_data.196" = type { %"class.std::__uniq_ptr_impl.197" }
%"class.std::__uniq_ptr_impl.197" = type { %"class.std::tuple.198" }
%"class.std::tuple.198" = type { %"struct.std::_Tuple_impl.199" }
%"struct.std::_Tuple_impl.199" = type { %"struct.std::_Head_base.202" }
%"struct.std::_Head_base.202" = type { ptr }
%"struct.net::QuicCryptoNegotiatedParameters" = type <{ i32, i32, %"class.std::__cxx11::basic_string", %"class.std::__cxx11::basic_string", %"class.std::__cxx11::basic_string", %"class.std::__cxx11::basic_string", %"struct.net::CrypterPair", %"struct.net::CrypterPair", %"class.std::__cxx11::basic_string", %"class.std::__cxx11::basic_string", %"class.std::__cxx11::basic_string", %"class.std::__cxx11::basic_string", %"class.std::vector.45", %"class.std::unique_ptr.203", %"class.std::__cxx11::basic_string", i32, i8, i8, [2 x i8], %"class.std::__cxx11::basic_string", %"class.std::__cxx11::basic_string", i8, [7 x i8] }>
%"class.net::ProofSource::Callback" = type { ptr }
%"class.std::unique_ptr.236" = type { %"struct.std::__uniq_ptr_data.237" }
%"struct.std::__uniq_ptr_data.237" = type { %"class.std::__uniq_ptr_impl.238" }
%"class.std::__uniq_ptr_impl.238" = type { %"class.std::tuple.239" }
%"class.std::tuple.239" = type { %"struct.std::_Tuple_impl.240" }
%"struct.std::_Tuple_impl.240" = type { %"struct.std::_Head_base.243" }
%"struct.std::_Head_base.243" = type { ptr }
%"class.net::QuicCryptoServerConfig::BuildServerConfigUpdateMessageProofSourceCallback" = type { %"class.net::ProofSource::Callback", ptr, i32, ptr, ptr, %"class.std::__cxx11::basic_string", %"class.std::__cxx11::basic_string", i8, %"class.net::CryptoHandshakeMessage", %"class.std::unique_ptr.236" }

@_ZTVN3net11ProofSource8CallbackE = linkonce_odr dso_local unnamed_addr constant { [5 x ptr] } { [5 x ptr] [ptr null, ptr @_ZTIN3net11ProofSource8CallbackE, ptr @_ZN3net11ProofSource8CallbackD2Ev, ptr @_ZN3net11ProofSource8CallbackD0Ev, ptr @__cxa_pure_virtual] }, comdat, align 8

; Function Attrs: mustprogress nounwind uwtable
define linkonce_odr dso_local noundef nonnull align 8 dereferenceable(8) ptr @_ZNSt10_Head_baseILm0EPN3net44BuildServerConfigUpdateMessageResultCallbackELb0EE7_M_headERS3_(ptr noundef nonnull align 8 dereferenceable(8) %__b) #3 comdat align 2 {
entry:
  %__b.addr = alloca ptr, align 8
  store ptr %__b, ptr %__b.addr, align 8
  %0 = load ptr, ptr %__b.addr, align 8
  %_M_head_impl = getelementptr inbounds %"struct.std::_Head_base.243", ptr %0, i32 0, i32 0
  ret ptr %_M_head_impl
}

; Function Attrs: mustprogress nounwind uwtable
define linkonce_odr dso_local noundef nonnull align 8 dereferenceable(8) ptr @_ZNSt11_Tuple_implILm0EJPN3net44BuildServerConfigUpdateMessageResultCallbackESt14default_deleteIS1_EEE7_M_headERS5_(ptr noundef nonnull align 8 dereferenceable(8) %__t) #3 comdat align 2 {
entry:
  %__t.addr = alloca ptr, align 8
  store ptr %__t, ptr %__t.addr, align 8
  %0 = load ptr, ptr %__t.addr, align 8
  %call = call noundef nonnull align 8 dereferenceable(8) ptr @_ZNSt10_Head_baseILm0EPN3net44BuildServerConfigUpdateMessageResultCallbackELb0EE7_M_headERS3_(ptr noundef nonnull align 8 dereferenceable(8) %0) #14
  ret ptr %call
}

; Function Attrs: mustprogress nounwind uwtable
define linkonce_odr dso_local noundef nonnull align 8 dereferenceable(8) ptr @_ZSt12__get_helperILm0EPN3net44BuildServerConfigUpdateMessageResultCallbackEJSt14default_deleteIS1_EEERT0_RSt11_Tuple_implIXT_EJS5_DpT1_EE(ptr noundef nonnull align 8 dereferenceable(8) %__t) #3 comdat {
entry:
  %__t.addr = alloca ptr, align 8
  store ptr %__t, ptr %__t.addr, align 8
  %0 = load ptr, ptr %__t.addr, align 8
  %call = call noundef nonnull align 8 dereferenceable(8) ptr @_ZNSt11_Tuple_implILm0EJPN3net44BuildServerConfigUpdateMessageResultCallbackESt14default_deleteIS1_EEE7_M_headERS5_(ptr noundef nonnull align 8 dereferenceable(8) %0) #14
  ret ptr %call
}

; Function Attrs: mustprogress nounwind uwtable
define linkonce_odr dso_local void @_ZNSt11_Tuple_implILm1EJSt14default_deleteIN3net44BuildServerConfigUpdateMessageResultCallbackEEEEC2EOS4_(ptr noundef nonnull align 1 dereferenceable(1) %this, ptr noundef nonnull align 1 dereferenceable(1) %__in) unnamed_addr #3 comdat align 2 {
entry:
  %this.addr = alloca ptr, align 8
  %__in.addr = alloca ptr, align 8
  store ptr %this, ptr %this.addr, align 8
  store ptr %__in, ptr %__in.addr, align 8
  ret void
}

; Function Attrs: mustprogress nounwind uwtable
define linkonce_odr dso_local noundef nonnull align 8 dereferenceable(8) ptr @_ZSt3getILm0EJPN3net44BuildServerConfigUpdateMessageResultCallbackESt14default_deleteIS1_EEERNSt13tuple_elementIXT_ESt5tupleIJDpT0_EEE4typeERS9_(ptr noundef nonnull align 8 dereferenceable(8) %__t) #3 comdat {
entry:
  %__t.addr = alloca ptr, align 8
  store ptr %__t, ptr %__t.addr, align 8
  %0 = load ptr, ptr %__t.addr, align 8
  %call = call noundef nonnull align 8 dereferenceable(8) ptr @_ZSt12__get_helperILm0EPN3net44BuildServerConfigUpdateMessageResultCallbackEJSt14default_deleteIS1_EEERT0_RSt11_Tuple_implIXT_EJS5_DpT1_EE(ptr noundef nonnull align 8 dereferenceable(8) %0) #14
  ret ptr %call
}

; Function Attrs: mustprogress nounwind uwtable
define linkonce_odr dso_local void @_ZNSt11_Tuple_implILm0EJPN3net44BuildServerConfigUpdateMessageResultCallbackESt14default_deleteIS1_EEEC2EOS5_(ptr noundef nonnull align 8 dereferenceable(8) %this, ptr noundef nonnull align 8 dereferenceable(8) %0) unnamed_addr #3 comdat align 2 {
entry:
  %this.addr = alloca ptr, align 8
  %.addr = alloca ptr, align 8
  store ptr %this, ptr %this.addr, align 8
  store ptr %0, ptr %.addr, align 8
  %this1 = load ptr, ptr %this.addr, align 8
  %1 = load ptr, ptr %.addr, align 8
  call void @_ZNSt11_Tuple_implILm1EJSt14default_deleteIN3net44BuildServerConfigUpdateMessageResultCallbackEEEEC2EOS4_(ptr noundef nonnull align 1 dereferenceable(1) %this1, ptr noundef nonnull align 1 dereferenceable(1) %1) #14
  %2 = load ptr, ptr %.addr, align 8
  call void @llvm.memcpy.p0.p0.i64(ptr align 8 %this1, ptr align 8 %2, i64 8, i1 false)
  ret void
}

; Function Attrs: mustprogress nounwind uwtable
define linkonce_odr dso_local noundef nonnull align 8 dereferenceable(8) ptr @_ZNSt15__uniq_ptr_implIN3net44BuildServerConfigUpdateMessageResultCallbackESt14default_deleteIS1_EE6_M_ptrEv(ptr noundef nonnull align 8 dereferenceable(8) %this) #3 comdat align 2 {
entry:
  %this.addr = alloca ptr, align 8
  store ptr %this, ptr %this.addr, align 8
  %this1 = load ptr, ptr %this.addr, align 8
  %_M_t = getelementptr inbounds %"class.std::__uniq_ptr_impl.238", ptr %this1, i32 0, i32 0
  %call = call noundef nonnull align 8 dereferenceable(8) ptr @_ZSt3getILm0EJPN3net44BuildServerConfigUpdateMessageResultCallbackESt14default_deleteIS1_EEERNSt13tuple_elementIXT_ESt5tupleIJDpT0_EEE4typeERS9_(ptr noundef nonnull align 8 dereferenceable(8) %_M_t) #14
  ret ptr %call
}

; Function Attrs: mustprogress nounwind uwtable
define linkonce_odr dso_local void @_ZNSt5tupleIJPN3net44BuildServerConfigUpdateMessageResultCallbackESt14default_deleteIS1_EEEC2EOS5_(ptr noundef nonnull align 8 dereferenceable(8) %this, ptr noundef nonnull align 8 dereferenceable(8) %0) unnamed_addr #3 comdat align 2 {
entry:
  %this.addr = alloca ptr, align 8
  %.addr = alloca ptr, align 8
  store ptr %this, ptr %this.addr, align 8
  store ptr %0, ptr %.addr, align 8
  %this1 = load ptr, ptr %this.addr, align 8
  %1 = load ptr, ptr %.addr, align 8
  call void @_ZNSt11_Tuple_implILm0EJPN3net44BuildServerConfigUpdateMessageResultCallbackESt14default_deleteIS1_EEEC2EOS5_(ptr noundef nonnull align 8 dereferenceable(8) %this1, ptr noundef nonnull align 8 dereferenceable(8) %1) #14
  ret void
}

; Function Attrs: mustprogress nounwind uwtable
define linkonce_odr dso_local void @_ZNSt15__uniq_ptr_implIN3net44BuildServerConfigUpdateMessageResultCallbackESt14default_deleteIS1_EEC2EOS4_(ptr noundef nonnull align 8 dereferenceable(8) %this, ptr noundef nonnull align 8 dereferenceable(8) %__u) unnamed_addr #3 comdat align 2 {
entry:
  %this.addr = alloca ptr, align 8
  %__u.addr = alloca ptr, align 8
  store ptr %this, ptr %this.addr, align 8
  store ptr %__u, ptr %__u.addr, align 8
  %this1 = load ptr, ptr %this.addr, align 8
  %_M_t = getelementptr inbounds %"class.std::__uniq_ptr_impl.238", ptr %this1, i32 0, i32 0
  %0 = load ptr, ptr %__u.addr, align 8
  %_M_t2 = getelementptr inbounds %"class.std::__uniq_ptr_impl.238", ptr %0, i32 0, i32 0
  call void @_ZNSt5tupleIJPN3net44BuildServerConfigUpdateMessageResultCallbackESt14default_deleteIS1_EEEC2EOS5_(ptr noundef nonnull align 8 dereferenceable(8) %_M_t, ptr noundef nonnull align 8 dereferenceable(8) %_M_t2) #14
  %1 = load ptr, ptr %__u.addr, align 8
  %call = call noundef nonnull align 8 dereferenceable(8) ptr @_ZNSt15__uniq_ptr_implIN3net44BuildServerConfigUpdateMessageResultCallbackESt14default_deleteIS1_EE6_M_ptrEv(ptr noundef nonnull align 8 dereferenceable(8) %1) #14
  store ptr null, ptr %call, align 8
  ret void
}

; Function Attrs: mustprogress nounwind uwtable
define linkonce_odr dso_local void @_ZNSt15__uniq_ptr_dataIN3net44BuildServerConfigUpdateMessageResultCallbackESt14default_deleteIS1_ELb1ELb1EEC2EOS4_(ptr noundef nonnull align 8 dereferenceable(8) %this, ptr noundef nonnull align 8 dereferenceable(8) %0) unnamed_addr #3 comdat align 2 {
entry:
  %this.addr = alloca ptr, align 8
  %.addr = alloca ptr, align 8
  store ptr %this, ptr %this.addr, align 8
  store ptr %0, ptr %.addr, align 8
  %this1 = load ptr, ptr %this.addr, align 8
  %1 = load ptr, ptr %.addr, align 8
  call void @_ZNSt15__uniq_ptr_implIN3net44BuildServerConfigUpdateMessageResultCallbackESt14default_deleteIS1_EEC2EOS4_(ptr noundef nonnull align 8 dereferenceable(8) %this1, ptr noundef nonnull align 8 dereferenceable(8) %1) #14
  ret void
}

; Function Attrs: mustprogress nounwind uwtable
define linkonce_odr dso_local void @_ZN3net11ProofSource8CallbackD2Ev(ptr noundef nonnull align 8 dereferenceable(8) %this) unnamed_addr #3 comdat align 2 {
entry:
  %this.addr = alloca ptr, align 8
  store ptr %this, ptr %this.addr, align 8
  ret void
}

; Function Attrs: mustprogress nounwind uwtable
define linkonce_odr dso_local void @_ZNSt10unique_ptrIN3net44BuildServerConfigUpdateMessageResultCallbackESt14default_deleteIS1_EEC2EOS4_(ptr noundef nonnull align 8 dereferenceable(8) %this, ptr noundef nonnull align 8 dereferenceable(8) %0) unnamed_addr #3 comdat align 2 {
entry:
  %this.addr = alloca ptr, align 8
  %.addr = alloca ptr, align 8
  store ptr %this, ptr %this.addr, align 8
  store ptr %0, ptr %.addr, align 8
  %this1 = load ptr, ptr %this.addr, align 8
  %_M_t = getelementptr inbounds %"class.std::unique_ptr.236", ptr %this1, i32 0, i32 0
  %1 = load ptr, ptr %.addr, align 8
  %_M_t2 = getelementptr inbounds %"class.std::unique_ptr.236", ptr %1, i32 0, i32 0
  call void @_ZNSt15__uniq_ptr_dataIN3net44BuildServerConfigUpdateMessageResultCallbackESt14default_deleteIS1_ELb1ELb1EEC2EOS4_(ptr noundef nonnull align 8 dereferenceable(8) %_M_t, ptr noundef nonnull align 8 dereferenceable(8) %_M_t2) #14
  ret void
}

; Function Attrs: mustprogress nounwind uwtable
define linkonce_odr dso_local void @_ZN3net11ProofSource8CallbackC2Ev(ptr noundef nonnull align 8 dereferenceable(8) %this) unnamed_addr #3 comdat align 2 {
entry:
  %this.addr = alloca ptr, align 8
  store ptr %this, ptr %this.addr, align 8
  %this1 = load ptr, ptr %this.addr, align 8
  store ptr getelementptr inbounds ({ [5 x ptr] }, ptr @_ZTVN3net11ProofSource8CallbackE, i32 0, i32 0, i32 2), ptr %this1, align 8
  ret void
}

; Function Attrs: mustprogress uwtable
define dso_local void @_ZN3net22QuicCryptoServerConfig49BuildServerConfigUpdateMessageProofSourceCallbackC2EPKS0_NS_11QuicVersionEPNS_24QuicCompressedCertsCacheEPKNS_14CommonCertSetsERKNS_30QuicCryptoNegotiatedParametersENS_22CryptoHandshakeMessageESt10unique_ptrINS_44BuildServerConfigUpdateMessageResultCallbackESt14default_deleteISF_EE(ptr noundef nonnull align 8 dereferenceable(192) %this, ptr noundef %config, i32 noundef %version, ptr noundef %compressed_certs_cache, ptr noundef %common_cert_sets, ptr noundef nonnull align 8 dereferenceable(433) %params, ptr noundef %message, ptr noundef %cb) unnamed_addr #0 align 2 personality ptr @__gxx_personality_v0 {
entry:
  %this.addr = alloca ptr, align 8
  %config.addr = alloca ptr, align 8
  %version.addr = alloca i32, align 4
  %compressed_certs_cache.addr = alloca ptr, align 8
  %common_cert_sets.addr = alloca ptr, align 8
  %params.addr = alloca ptr, align 8
  %message.indirect_addr = alloca ptr, align 8
  %cb.indirect_addr = alloca ptr, align 8
  %exn.slot = alloca ptr, align 8
  %ehselector.slot = alloca i32, align 4
  store ptr %this, ptr %this.addr, align 8
  store ptr %config, ptr %config.addr, align 8
  store i32 %version, ptr %version.addr, align 4
  store ptr %compressed_certs_cache, ptr %compressed_certs_cache.addr, align 8
  store ptr %common_cert_sets, ptr %common_cert_sets.addr, align 8
  store ptr %params, ptr %params.addr, align 8
  store ptr %message, ptr %message.indirect_addr, align 8
  store ptr %cb, ptr %cb.indirect_addr, align 8
  %this1 = load ptr, ptr %this.addr, align 8
  call void @_ZN3net11ProofSource8CallbackC2Ev(ptr noundef nonnull align 8 dereferenceable(8) %this1)
  store ptr getelementptr inbounds ({ [5 x ptr] }, ptr @_ZTVN3net22QuicCryptoServerConfig49BuildServerConfigUpdateMessageProofSourceCallbackE, i32 0, i32 0, i32 2), ptr %this1, align 8
  %config_ = getelementptr inbounds %"class.net::QuicCryptoServerConfig::BuildServerConfigUpdateMessageProofSourceCallback", ptr %this1, i32 0, i32 1
  %0 = load ptr, ptr %config.addr, align 8
  store ptr %0, ptr %config_, align 8
  %version_ = getelementptr inbounds %"class.net::QuicCryptoServerConfig::BuildServerConfigUpdateMessageProofSourceCallback", ptr %this1, i32 0, i32 2
  %1 = load i32, ptr %version.addr, align 4
  store i32 %1, ptr %version_, align 8
  %compressed_certs_cache_ = getelementptr inbounds %"class.net::QuicCryptoServerConfig::BuildServerConfigUpdateMessageProofSourceCallback", ptr %this1, i32 0, i32 3
  %2 = load ptr, ptr %compressed_certs_cache.addr, align 8
  store ptr %2, ptr %compressed_certs_cache_, align 8
  %common_cert_sets_ = getelementptr inbounds %"class.net::QuicCryptoServerConfig::BuildServerConfigUpdateMessageProofSourceCallback", ptr %this1, i32 0, i32 4
  %3 = load ptr, ptr %common_cert_sets.addr, align 8
  store ptr %3, ptr %common_cert_sets_, align 8
  %client_common_set_hashes_ = getelementptr inbounds %"class.net::QuicCryptoServerConfig::BuildServerConfigUpdateMessageProofSourceCallback", ptr %this1, i32 0, i32 5
  %4 = load ptr, ptr %params.addr, align 8
  %client_common_set_hashes = getelementptr inbounds %"struct.net::QuicCryptoNegotiatedParameters", ptr %4, i32 0, i32 19
  invoke void @_ZNSt7__cxx1112basic_stringIcSt11char_traitsIcESaIcEEC1ERKS4_(ptr noundef nonnull align 8 dereferenceable(32) %client_common_set_hashes_, ptr noundef nonnull align 8 dereferenceable(32) %client_common_set_hashes)
          to label %invoke.cont unwind label %lpad

invoke.cont:                                      ; preds = %entry
  %client_cached_cert_hashes_ = getelementptr inbounds %"class.net::QuicCryptoServerConfig::BuildServerConfigUpdateMessageProofSourceCallback", ptr %this1, i32 0, i32 6
  %5 = load ptr, ptr %params.addr, align 8
  %client_cached_cert_hashes = getelementptr inbounds %"struct.net::QuicCryptoNegotiatedParameters", ptr %5, i32 0, i32 20
  invoke void @_ZNSt7__cxx1112basic_stringIcSt11char_traitsIcESaIcEEC1ERKS4_(ptr noundef nonnull align 8 dereferenceable(32) %client_cached_cert_hashes_, ptr noundef nonnull align 8 dereferenceable(32) %client_cached_cert_hashes)
          to label %invoke.cont3 unwind label %lpad2

invoke.cont3:                                     ; preds = %invoke.cont
  %sct_supported_by_client_ = getelementptr inbounds %"class.net::QuicCryptoServerConfig::BuildServerConfigUpdateMessageProofSourceCallback", ptr %this1, i32 0, i32 7
  %6 = load ptr, ptr %params.addr, align 8
  %sct_supported_by_client = getelementptr inbounds %"struct.net::QuicCryptoNegotiatedParameters", ptr %6, i32 0, i32 21
  %7 = load i8, ptr %sct_supported_by_client, align 8
  %tobool = trunc i8 %7 to i1
  %frombool = zext i1 %tobool to i8
  store i8 %frombool, ptr %sct_supported_by_client_, align 8
  %message_ = getelementptr inbounds %"class.net::QuicCryptoServerConfig::BuildServerConfigUpdateMessageProofSourceCallback", ptr %this1, i32 0, i32 8
  invoke void @_ZN3net22CryptoHandshakeMessageC1EOS0_(ptr noundef nonnull align 8 dereferenceable(72) %message_, ptr noundef nonnull align 8 dereferenceable(72) %message)
          to label %invoke.cont5 unwind label %lpad4

invoke.cont5:                                     ; preds = %invoke.cont3
  %cb_ = getelementptr inbounds %"class.net::QuicCryptoServerConfig::BuildServerConfigUpdateMessageProofSourceCallback", ptr %this1, i32 0, i32 9
  call void @_ZNSt10unique_ptrIN3net44BuildServerConfigUpdateMessageResultCallbackESt14default_deleteIS1_EEC2EOS4_(ptr noundef nonnull align 8 dereferenceable(8) %cb_, ptr noundef nonnull align 8 dereferenceable(8) %cb) #14
  ret void

lpad:                                             ; preds = %entry
  %8 = landingpad { ptr, i32 }
          cleanup
  %9 = extractvalue { ptr, i32 } %8, 0
  store ptr %9, ptr %exn.slot, align 8
  %10 = extractvalue { ptr, i32 } %8, 1
  store i32 %10, ptr %ehselector.slot, align 4
  br label %ehcleanup6

lpad2:                                            ; preds = %invoke.cont
  %11 = landingpad { ptr, i32 }
          cleanup
  %12 = extractvalue { ptr, i32 } %11, 0
  store ptr %12, ptr %exn.slot, align 8
  %13 = extractvalue { ptr, i32 } %11, 1
  store i32 %13, ptr %ehselector.slot, align 4
  br label %ehcleanup

lpad4:                                            ; preds = %invoke.cont3
  %14 = landingpad { ptr, i32 }
          cleanup
  %15 = extractvalue { ptr, i32 } %14, 0
  store ptr %15, ptr %exn.slot, align 8
  %16 = extractvalue { ptr, i32 } %14, 1
  store i32 %16, ptr %ehselector.slot, align 4
  call void @_ZNSt7__cxx1112basic_stringIcSt11char_traitsIcESaIcEED1Ev(ptr noundef nonnull align 8 dereferenceable(32) %client_cached_cert_hashes_) #14
  br label %ehcleanup

ehcleanup:                                        ; preds = %lpad4, %lpad2
  call void @_ZNSt7__cxx1112basic_stringIcSt11char_traitsIcESaIcEED1Ev(ptr noundef nonnull align 8 dereferenceable(32) %client_common_set_hashes_) #14
  br label %ehcleanup6

ehcleanup6:                                       ; preds = %ehcleanup, %lpad
  call void @_ZN3net11ProofSource8CallbackD2Ev(ptr noundef nonnull align 8 dereferenceable(8) %this1) #14
  br label %eh.resume

eh.resume:                                        ; preds = %ehcleanup6
  %exn = load ptr, ptr %exn.slot, align 8
  %sel = load i32, ptr %ehselector.slot, align 4
  %lpad.val = insertvalue { ptr, i32 } poison, ptr %exn, 0
  %lpad.val7 = insertvalue { ptr, i32 } %lpad.val, i32 %sel, 1
  resume { ptr, i32 } %lpad.val7
}