; Function Attrs: mustprogress uwtable
define dso_local void @_ZN3net22QuicCryptoServerConfig49BuildServerConfigUpdateMessageProofSourceCallbackC2EPKS0_NS_11QuicVersionEPNS_24QuicCompressedCertsCacheEPKNS_14CommonCertSetsERKNS_30QuicCryptoNegotiatedParametersENS_22CryptoHandshakeMessageESt10unique_ptrINS_44BuildServerConfigUpdateMessageResultCallbackESt14default_deleteISF_EE(ptr noundef nonnull align 8 dereferenceable(192) %this, ptr noundef %config, i32 noundef %version, ptr noundef %compressed_certs_cache, ptr noundef %common_cert_sets, ptr noundef nonnull align 8 dereferenceable(433) %params, ptr noundef %message, ptr nocapture noundef %cb) unnamed_addr #0 align 2 personality ptr @__gxx_personality_v0 {
entry:
  store ptr getelementptr inbounds ({ [5 x ptr] }, ptr @_ZTVN3net22QuicCryptoServerConfig49BuildServerConfigUpdateMessageProofSourceCallbackE, i64 0, i32 0, i64 2), ptr %this, align 8
  %config_ = getelementptr inbounds i8, ptr %this, i64 8
  store ptr %config, ptr %config_, align 8
  %version_ = getelementptr inbounds i8, ptr %this, i64 16
  store i32 %version, ptr %version_, align 8
  %compressed_certs_cache_ = getelementptr inbounds i8, ptr %this, i64 24
  store ptr %compressed_certs_cache, ptr %compressed_certs_cache_, align 8
  %common_cert_sets_ = getelementptr inbounds i8, ptr %this, i64 32
  store ptr %common_cert_sets, ptr %common_cert_sets_, align 8
  %client_common_set_hashes_ = getelementptr inbounds i8, ptr %this, i64 40
  %client_common_set_hashes = getelementptr inbounds i8, ptr %params, i64 368
  tail call void @_ZNSt7__cxx1112basic_stringIcSt11char_traitsIcESaIcEEC1ERKS4_(ptr noundef nonnull align 8 dereferenceable(32) %client_common_set_hashes_, ptr noundef nonnull align 8 dereferenceable(32) %client_common_set_hashes)
  %client_cached_cert_hashes_ = getelementptr inbounds i8, ptr %this, i64 72
  %client_cached_cert_hashes = getelementptr inbounds i8, ptr %params, i64 400
  invoke void @_ZNSt7__cxx1112basic_stringIcSt11char_traitsIcESaIcEEC1ERKS4_(ptr noundef nonnull align 8 dereferenceable(32) %client_cached_cert_hashes_, ptr noundef nonnull align 8 dereferenceable(32) %client_cached_cert_hashes)
          to label %invoke.cont3 unwind label %lpad2

invoke.cont3:                                     ; preds = %entry
  %sct_supported_by_client_ = getelementptr inbounds i8, ptr %this, i64 104
  %sct_supported_by_client = getelementptr inbounds i8, ptr %params, i64 432
  %0 = load i8, ptr %sct_supported_by_client, align 8
  %1 = and i8 %0, 1
  store i8 %1, ptr %sct_supported_by_client_, align 8
  %message_ = getelementptr inbounds i8, ptr %this, i64 112
  invoke void @_ZN3net22CryptoHandshakeMessageC1EOS0_(ptr noundef nonnull align 8 dereferenceable(72) %message_, ptr noundef nonnull align 8 dereferenceable(72) %message)
          to label %invoke.cont5 unwind label %lpad4

invoke.cont5:                                     ; preds = %invoke.cont3
  %cb_ = getelementptr inbounds i8, ptr %this, i64 184
  %2 = load i64, ptr %cb, align 8
  store i64 %2, ptr %cb_, align 8
  store ptr null, ptr %cb, align 8
  ret void

lpad2:                                            ; preds = %entry
  %3 = landingpad { ptr, i32 }
          cleanup
  br label %ehcleanup

lpad4:                                            ; preds = %invoke.cont3
  %4 = landingpad { ptr, i32 }
          cleanup
  tail call void @_ZNSt7__cxx1112basic_stringIcSt11char_traitsIcESaIcEED1Ev(ptr noundef nonnull align 8 dereferenceable(32) %client_cached_cert_hashes_) #20
  br label %ehcleanup

ehcleanup:                                        ; preds = %lpad4, %lpad2
  %.pn = phi { ptr, i32 } [ %4, %lpad4 ], [ %3, %lpad2 ]
  tail call void @_ZNSt7__cxx1112basic_stringIcSt11char_traitsIcESaIcEED1Ev(ptr noundef nonnull align 8 dereferenceable(32) %client_common_set_hashes_) #20
  resume { ptr, i32 } %.pn
}